(i__main__
ExecClass
p0
(dp1
S'btbTimes'
p2
(lp3
F183.42599999999999
asS'btbMp'
p4
(i__main__
MispredictStats
p5
(dp6
S'totalBytesList'
p7
(lp8
I127107724
asS'rsbMpList'
p9
(lp10
I0
asS'btbMpList'
p11
(lp12
I14317225
asS'condMpList'
p13
(lp14
I3142481
asbsS'btbRsbTimes'
p15
(lp16
F198.89599999999999
asS'bareTimes'
p17
(lp18
F52.25
asS'noInstrTimes'
p19
(lp20
F116.916
asS'btbRsbMp'
p21
(i__main__
MispredictStats
p22
(dp23
g7
(lp24
I28142044
asg9
(lp25
I3551
asg11
(lp26
I1999135
asg13
(lp27
I3030139
asbsb.