(i__main__
ExecClass
p0
(dp1
S'btbTimes'
p2
(lp3
F3.7130000000000001
asS'btbMp'
p4
(i__main__
MispredictStats
p5
(dp6
S'totalBytesList'
p7
(lp8
I56184
asS'rsbMpList'
p9
(lp10
I0
asS'btbMpList'
p11
(lp12
I3531
asS'condMpList'
p13
(lp14
I6984
asbsS'btbRsbTimes'
p15
(lp16
F3.8620000000000001
asS'bareTimes'
p17
(lp18
F0.0050000000000000001
asS'noInstrTimes'
p19
(lp20
F1.3420000000000001
asS'btbRsbMp'
p21
(i__main__
MispredictStats
p22
(dp23
g7
(lp24
I31208
asg9
(lp25
I172
asg11
(lp26
I237
asg13
(lp27
I6984
asbsb.