(i__main__
ExecClass
p0
(dp1
S'btbTimes'
p2
(lp3
F4.4690000000000003
asS'btbMp'
p4
(i__main__
MispredictStats
p5
(dp6
S'totalBytesList'
p7
(lp8
I522596
asS'rsbMpList'
p9
(lp10
I0
asS'btbMpList'
p11
(lp12
I41857
asS'condMpList'
p13
(lp14
I46935
asbsS'btbRsbTimes'
p15
(lp16
F4.625
asS'bareTimes'
p17
(lp18
F0.081000000000000003
asS'noInstrTimes'
p19
(lp20
F1.589
asS'btbRsbMp'
p21
(i__main__
MispredictStats
p22
(dp23
g7
(lp24
I253552
asg9
(lp25
I184
asg11
(lp26
I8048
asg13
(lp27
I46924
asbsb.